ccopy_reg
_reconstructor
p1
(cdynamic_reconfigure.msg._Config
Config
p2
c__builtin__
object
p3
NtRp4
(lp5
(lp6
a(lp7
a(lp8
a(lp9
g1
(cdynamic_reconfigure.msg._DoubleParameter
DoubleParameter
p10
g3
NtRp11
(lp12
S'backward_mult'
p13
aF2
abag1
(g10
g3
NtRp14
(lp15
S'forward_mult'
p16
aF2
abag1
(g10
g3
NtRp17
(lp18
S'rotation_mult'
p19
aF2
abag1
(g10
g3
NtRp20
(lp21
S'left_gain'
p22
aF1
abag1
(g10
g3
NtRp23
(lp24
S'right_gain'
p25
aF1
abaa(lp26
g1
(cdynamic_reconfigure.msg._GroupState
GroupState
p27
g3
NtRp28
(lp29
S'Default'
p30
aI01
aI0
aI0
abaab.