ccopy_reg
_reconstructor
p1
(cdynamic_reconfigure.msg._Config
Config
p2
c__builtin__
object
p3
NtRp4
(lp5
(lp6
g1
(cdynamic_reconfigure.msg._BoolParameter
BoolParameter
p7
g3
NtRp8
(lp9
S'mEnabled'
p10
aI01
abaa(lp11
g1
(cdynamic_reconfigure.msg._IntParameter
IntParameter
p12
g3
NtRp13
(lp14
S'mMinBlobSize'
p15
aI1000
abaa(lp16
a(lp17
g1
(cdynamic_reconfigure.msg._DoubleParameter
DoubleParameter
p18
g3
NtRp19
(lp20
S'mMinY'
p21
aF-1
abag1
(g18
g3
NtRp22
(lp23
S'mMaxY'
p24
aF0
abag1
(g18
g3
NtRp25
(lp26
S'mMinX'
p27
aF-0.29999999999999999
abag1
(g18
g3
NtRp28
(lp29
S'mMaxX'
p30
aF0.29999999999999999
abag1
(g18
g3
NtRp31
(lp32
S'mMinZ'
p33
aF0.29999999999999999
abag1
(g18
g3
NtRp34
(lp35
S'mMaxZ'
p36
aF3
abaa(lp37
g1
(cdynamic_reconfigure.msg._GroupState
GroupState
p38
g3
NtRp39
(lp40
S'Default'
p41
aI01
aI0
aI0
abaab.