ccopy_reg
_reconstructor
p1
(cdynamic_reconfigure.msg._Config
Config
p2
c__builtin__
object
p3
NtRp4
(lp5
(lp6
g1
(cdynamic_reconfigure.msg._BoolParameter
BoolParameter
p7
g3
NtRp8
(lp9
S'mEnabled'
p10
aI01
abaa(lp11
a(lp12
a(lp13
a(lp14
g1
(cdynamic_reconfigure.msg._GroupState
GroupState
p15
g3
NtRp16
(lp17
S'Default'
p18
aI01
aI0
aI0
abaab.