ccopy_reg
_reconstructor
p1
(cdynamic_reconfigure.msg._Config
Config
p2
c__builtin__
object
p3
NtRp4
(lp5
(lp6
g1
(cdynamic_reconfigure.msg._BoolParameter
BoolParameter
p7
g3
NtRp8
(lp9
S'enable_recognition'
p10
aI01
abaa(lp11
g1
(cdynamic_reconfigure.msg._IntParameter
IntParameter
p12
g3
NtRp13
(lp14
S'detection_rate'
p15
aI30
abaa(lp16
a(lp17
a(lp18
g1
(cdynamic_reconfigure.msg._GroupState
GroupState
p19
g3
NtRp20
(lp21
S'Default'
p22
aI01
aI0
aI0
abaab.