ccopy_reg
_reconstructor
p1
(cdynamic_reconfigure.msg._Config
Config
p2
c__builtin__
object
p3
NtRp4
(lp5
(lp6
g1
(cdynamic_reconfigure.msg._BoolParameter
BoolParameter
p7
g3
NtRp8
(lp9
S'mEnabled'
p10
aI01
abaa(lp11
a(lp12
a(lp13
g1
(cdynamic_reconfigure.msg._DoubleParameter
DoubleParameter
p14
g3
NtRp15
(lp16
S'GoalZ'
p17
aF1.2
abag1
(g14
g3
NtRp18
(lp19
S'GoalX'
p20
aF0.14999999999999999
abag1
(g14
g3
NtRp21
(lp22
S'ZScale'
p23
aF2
abag1
(g14
g3
NtRp24
(lp25
S'XScale'
p26
aF5
abag1
(g14
g3
NtRp27
(lp28
S'GoalInterval'
p29
aF0.0001
abag1
(g14
g3
NtRp30
(lp31
S'DamperDivisor'
p32
aF10
abag1
(g14
g3
NtRp33
(lp34
S'MaxRobotSpeed'
p35
aF4
abaa(lp36
g1
(cdynamic_reconfigure.msg._GroupState
GroupState
p37
g3
NtRp38
(lp39
S'Default'
p40
aI01
aI0
aI0
abaab.