ccopy_reg
_reconstructor
p1
(cdynamic_reconfigure.msg._Config
Config
p2
c__builtin__
object
p3
NtRp4
(lp5
(lp6
g1
(cdynamic_reconfigure.msg._BoolParameter
BoolParameter
p7
g3
NtRp8
(lp9
S'enable_depth'
p10
aI01
abaa(lp11
g1
(cdynamic_reconfigure.msg._IntParameter
IntParameter
p12
g3
NtRp13
(lp14
S'color_backlight_compensation'
p15
aI0
abag1
(g12
g3
NtRp16
(lp17
S'color_brightness'
p18
aI0
abag1
(g12
g3
NtRp19
(lp20
S'color_contrast'
p21
aI50
abag1
(g12
g3
NtRp22
(lp23
S'color_exposure'
p24
aI166
abag1
(g12
g3
NtRp25
(lp26
S'color_gain'
p27
aI64
abag1
(g12
g3
NtRp28
(lp29
S'color_gamma'
p30
aI280
abag1
(g12
g3
NtRp31
(lp32
S'color_hue'
p33
aI0
abag1
(g12
g3
NtRp34
(lp35
S'color_saturation'
p36
aI64
abag1
(g12
g3
NtRp37
(lp38
S'color_sharpness'
p39
aI7
abag1
(g12
g3
NtRp40
(lp41
S'color_white_balance'
p42
aI4600
abag1
(g12
g3
NtRp43
(lp44
S'color_enable_auto_exposure'
p45
aI1
abag1
(g12
g3
NtRp46
(lp47
S'color_enable_auto_white_balance'
p48
aI1
abag1
(g12
g3
NtRp49
(lp50
S'r200_lr_auto_exposure_enabled'
p51
aI1
abag1
(g12
g3
NtRp52
(lp53
S'r200_lr_gain'
p54
aI400
abag1
(g12
g3
NtRp55
(lp56
S'r200_lr_exposure'
p57
aI164
abag1
(g12
g3
NtRp58
(lp59
S'r200_emitter_enabled'
p60
aI1
abag1
(g12
g3
NtRp61
(lp62
S'r200_depth_clamp_min'
p63
aI0
abag1
(g12
g3
NtRp64
(lp65
S'r200_depth_clamp_max'
p66
aI65535
abag1
(g12
g3
NtRp67
(lp68
S'fisheye_exposure'
p69
aI40
abag1
(g12
g3
NtRp70
(lp71
S'fisheye_gain'
p72
aI0
abag1
(g12
g3
NtRp73
(lp74
S'fisheye_strobe'
p75
aI0
abag1
(g12
g3
NtRp76
(lp77
S'fisheye_external_trigger'
p78
aI0
abag1
(g12
g3
NtRp79
(lp80
S'fisheye_enable_auto_exposure'
p81
aI1
abag1
(g12
g3
NtRp82
(lp83
S'fisheye_auto_exposure_mode'
p84
aI0
abag1
(g12
g3
NtRp85
(lp86
S'fisheye_auto_exposure_antiflicker_rate'
p87
aI60
abag1
(g12
g3
NtRp88
(lp89
S'fisheye_auto_exposure_pixel_sample_rate'
p90
aI1
abag1
(g12
g3
NtRp91
(lp92
S'fisheye_auto_exposure_skip_frames'
p93
aI2
abag1
(g12
g3
NtRp94
(lp95
S'frames_queue_size'
p96
aI20
abag1
(g12
g3
NtRp97
(lp98
S'hardware_logger_enabled'
p99
aI0
abag1
(g12
g3
NtRp100
(lp101
S'r200_dc_preset'
p102
aI2
abag1
(g12
g3
NtRp103
(lp104
S'r200_dc_estimate_median_decrement'
p105
aI5
abag1
(g12
g3
NtRp106
(lp107
S'r200_dc_estimate_median_increment'
p108
aI5
abag1
(g12
g3
NtRp109
(lp110
S'r200_dc_median_threshold'
p111
aI235
abag1
(g12
g3
NtRp112
(lp113
S'r200_dc_score_minimum_threshold'
p114
aI27
abag1
(g12
g3
NtRp115
(lp116
S'r200_dc_score_maximum_threshold'
p117
aI420
abag1
(g12
g3
NtRp118
(lp119
S'r200_dc_texture_count_threshold'
p120
aI8
abag1
(g12
g3
NtRp121
(lp122
S'r200_dc_texture_difference_threshold'
p123
aI80
abag1
(g12
g3
NtRp124
(lp125
S'r200_dc_second_peak_threshold'
p126
aI70
abag1
(g12
g3
NtRp127
(lp128
S'r200_dc_neighbor_threshold'
p129
aI90
abag1
(g12
g3
NtRp130
(lp131
S'r200_dc_lr_threshold'
p132
aI12
abaa(lp133
a(lp134
a(lp135
g1
(cdynamic_reconfigure.msg._GroupState
GroupState
p136
g3
NtRp137
(lp138
S'Default'
p139
aI01
aI0
aI0
abag1
(g136
g3
NtRp140
(lp141
S'R200_Depth_Control'
p142
aI01
aI1
aI0
abaab.